; Function Attrs: mustprogress nounwind uwtable
define dso_local noundef zeroext i1 @_ZN5clang7CodeGen15CodeGenFunction18isInAllocaArgumentERNS0_8CGCXXABIENS_8QualTypeE(ptr nocapture noundef nonnull readnone align 8 dereferenceable(6488) %0, ptr noundef nonnull align 8 dereferenceable(24) %1, i64 %2) local_unnamed_addr #0 align 2 {
  %4 = and i64 %2, -16
  %5 = inttoptr i64 %4 to ptr
  %6 = load ptr, ptr %5, align 16
  %7 = tail call noundef ptr @_ZNK5clang4Type18getAsCXXRecordDeclEv(ptr noundef nonnull align 16 dereferenceable(24) %6) #21
  %.not = icmp eq ptr %7, null
  br i1 %.not, label %14, label %8

8:                                                ; preds = %3
  %9 = load ptr, ptr %1, align 8
  %10 = getelementptr inbounds i8, ptr %9, i64 88
  %11 = load ptr, ptr %10, align 8
  %12 = tail call noundef i32 %11(ptr noundef nonnull align 8 dereferenceable(24) %1, ptr noundef nonnull %7) #21
  %13 = icmp eq i32 %12, 1
  br label %14

14:                                               ; preds = %8, %3
  %15 = phi i1 [ false, %3 ], [ %13, %8 ]
  ret i1 %15
}